target datalayout = "e-m:e-p270:32:32-p271:32:32-p272:64:64-i64:64-i128:128-f80:128-n8:16:32:64-S128"
target triple = "x86_64-pc-linux-gnu"

%"struct.(anonymous namespace)::spec::WeakCall<void ()>::__FV" = type { i8 }

@_ZTISt13runtime_error = external constant ptr
@.str.61 = private unnamed_addr constant [17 x i8] c"Not implemented!\00", align 1

; Function Attrs: mustprogress uwtable
define internal void @_ZN12_GLOBAL__N_14spec14NotImplementedIvJEEET_DpOT0_() #4 personality ptr @__gxx_personality_v0 {
  %1 = alloca ptr, align 8
  %2 = alloca i32, align 4
  %3 = call ptr @__cxa_allocate_exception(i64 16) #3
  invoke void @_ZNSt13runtime_errorC1EPKc(ptr noundef nonnull align 8 dereferenceable(16) %3, ptr noundef @.str.61)
          to label %4 unwind label %5

4:                                                ; preds = %0
  call void @__cxa_throw(ptr %3, ptr @_ZTISt13runtime_error, ptr @_ZNSt13runtime_errorD1Ev) #17
  unreachable

5:                                                ; preds = %0
  %6 = landingpad { ptr, i32 }
          cleanup
  %7 = extractvalue { ptr, i32 } %6, 0
  store ptr %7, ptr %1, align 8
  %8 = extractvalue { ptr, i32 } %6, 1
  store i32 %8, ptr %2, align 4
  call void @__cxa_free_exception(ptr %3) #3
  br label %9

9:                                                ; preds = %5
  %10 = load ptr, ptr %1, align 8
  %11 = load i32, ptr %2, align 4
  %12 = insertvalue { ptr, i32 } poison, ptr %10, 0
  %13 = insertvalue { ptr, i32 } %12, i32 %11, 1
  resume { ptr, i32 } %13
}

; Function Attrs: mustprogress uwtable
define internal void @_ZN12_GLOBAL__N_14spec8WeakCallIJFvvEEE4__FVclIJEEEDcDpOT_QrqXcl14NotImplementedIvEspclgssr3stdE7forwardITL0__Efp_EEE(ptr noundef nonnull align 1 dereferenceable(1) %0) #4 align 2 {
  %2 = alloca ptr, align 8
  store ptr %0, ptr %2, align 8
  call void @_ZN12_GLOBAL__N_14spec14NotImplementedIvJEEET_DpOT0_()
  ret void
}

; Function Attrs: mustprogress uwtable
define internal void @_ZN3pro7details15invoke_dispatchIN12_GLOBAL__N_14spec8WeakCallIJFvvEEE4__FVEvJEEET0_DpOT1_() #4 {
  %1 = alloca %"struct.(anonymous namespace)::spec::WeakCall<void ()>::__FV", align 1
  call void @_ZN12_GLOBAL__N_14spec8WeakCallIJFvvEEE4__FVclIJEEEDcDpOT_QrqXcl14NotImplementedIvEspclgssr3stdE7forwardITL0__Efp_EEE(ptr noundef nonnull align 1 dereferenceable(1) %1)
  ret void
}

; Function Attrs: mustprogress uwtable
define internal void @_ZN3pro7details26invocation_dispatcher_voidIN12_GLOBAL__N_14spec8WeakCallIJFvvEEE4__FVEvJEEET0_PKSt4byteDpT1_(ptr noundef %0) #4 {
  %2 = alloca ptr, align 8
  store ptr %0, ptr %2, align 8
  call void @_ZN3pro7details15invoke_dispatchIN12_GLOBAL__N_14spec8WeakCallIJFvvEEE4__FVEvJEEET0_DpOT1_()
  ret void
}