; Function Attrs: mustprogress noreturn uwtable
define internal void @_ZN3pro7details26invocation_dispatcher_voidIN12_GLOBAL__N_14spec8WeakCallIJFvvEEE4__FVEvJEEET0_PKSt4byteDpT1_(ptr nocapture readnone %0) #15 personality ptr @__gxx_personality_v0 {
  %2 = tail call ptr @__cxa_allocate_exception(i64 16) #25
  invoke void @_ZNSt13runtime_errorC1EPKc(ptr noundef nonnull align 8 dereferenceable(16) %2, ptr noundef nonnull @.str.61)
          to label %3 unwind label %4

3:                                                ; preds = %1
  tail call void @__cxa_throw(ptr nonnull %2, ptr nonnull @_ZTISt13runtime_error, ptr nonnull @_ZNSt13runtime_errorD1Ev) #26
  unreachable

4:                                                ; preds = %1
  %5 = landingpad { ptr, i32 }
          cleanup
  tail call void @__cxa_free_exception(ptr %2) #25
  resume { ptr, i32 } %5
}